; Function Attrs: nounwind uwtable
define zeroext i1 @duckdb_je_prof_gdump_get(ptr noundef %0) local_unnamed_addr #4 {
  %2 = tail call i32 @pthread_mutex_trylock(ptr noundef nonnull getelementptr inbounds nuw (i8, ptr @prof_gdump_mtx, i64 72)) #10
  %.not.i = icmp eq i32 %2, 0
  br i1 %.not.i, label %3, label %atomic_store_b.exit.i

atomic_store_b.exit.i:                            ; preds = %1
  tail call void @duckdb_je_malloc_mutex_lock_slow(ptr noundef nonnull @prof_gdump_mtx) #10
  store atomic i8 1, ptr getelementptr inbounds nuw (i8, ptr @prof_gdump_mtx, i64 64) monotonic, align 8
  br label %3

3:                                                ; preds = %atomic_store_b.exit.i, %1
  %4 = load i64, ptr getelementptr inbounds nuw (i8, ptr @prof_gdump_mtx, i64 56), align 8, !tbaa !6
  %5 = add i64 %4, 1
  store i64 %5, ptr getelementptr inbounds nuw (i8, ptr @prof_gdump_mtx, i64 56), align 8, !tbaa !6
  %6 = load ptr, ptr getelementptr inbounds nuw (i8, ptr @prof_gdump_mtx, i64 48), align 8, !tbaa !14
  %.not.i.i = icmp eq ptr %6, %0
  br i1 %.not.i.i, label %malloc_mutex_lock.exit, label %7

7:                                                ; preds = %3
  store ptr %0, ptr getelementptr inbounds nuw (i8, ptr @prof_gdump_mtx, i64 48), align 8, !tbaa !14
  %8 = load i64, ptr getelementptr inbounds nuw (i8, ptr @prof_gdump_mtx, i64 40), align 8, !tbaa !15
  %9 = add i64 %8, 1
  store i64 %9, ptr getelementptr inbounds nuw (i8, ptr @prof_gdump_mtx, i64 40), align 8, !tbaa !15
  br label %malloc_mutex_lock.exit

malloc_mutex_lock.exit:                           ; preds = %3, %7
  %10 = load i8, ptr @duckdb_je_prof_gdump_val, align 1, !tbaa !17, !range !19, !noundef !20
  %11 = trunc nuw i8 %10 to i1
  store atomic i8 0, ptr getelementptr inbounds nuw (i8, ptr @prof_gdump_mtx, i64 64) monotonic, align 8
  %12 = tail call i32 @pthread_mutex_unlock(ptr noundef nonnull getelementptr inbounds nuw (i8, ptr @prof_gdump_mtx, i64 72)) #10
  ret i1 %11
}